; Function Attrs: nounwind uwtable
define i32 @wolfSSL_use_certificate_chain_buffer(ptr noundef %0, ptr noundef %1, i64 noundef %2) local_unnamed_addr #0 {
  %4 = icmp eq ptr %0, null
  br i1 %4, label %wolfSSL_use_certificate_chain_buffer_format.exit, label %5

5:                                                ; preds = %3
  %6 = load ptr, ptr %0, align 16, !tbaa !96
  %7 = getelementptr inbounds nuw i8, ptr %0, i64 1024
  %8 = load i64, ptr %7, align 8
  %9 = and i64 %8, 128
  %.not.i = icmp eq i64 %9, 0
  %10 = zext i1 %.not.i to i32
  %11 = tail call i32 @ProcessBuffer(ptr noundef %6, ptr noundef %1, i64 noundef %2, i32 noundef 1, i32 noundef 0, ptr noundef nonnull %0, ptr noundef null, i32 noundef 1, i32 noundef %10)
  br label %wolfSSL_use_certificate_chain_buffer_format.exit

wolfSSL_use_certificate_chain_buffer_format.exit: ; preds = %3, %5
  %.0.i = phi i32 [ %11, %5 ], [ -173, %3 ]
  ret i32 %.0.i
}